; ModuleID = 'source-C-CXX/10/1059.cpp'
source_filename = "source-C-CXX/10/1059.cpp"
target datalayout = "e-m:e-p270:32:32-p271:32:32-p272:64:64-i64:64-f80:128-n8:16:32:64-S128"
target triple = "x86_64-pc-linux-gnu"

%"class.std::ios_base::Init" = type { i8 }
%"class.std::basic_istream" = type { i32 (...)**, i64, %"class.std::basic_ios" }
%"class.std::basic_ios" = type { %"class.std::ios_base", %"class.std::basic_ostream"*, i8, i8, %"class.std::basic_streambuf"*, %"class.std::ctype"*, %"class.std::num_put"*, %"class.std::num_get"* }
%"class.std::ios_base" = type { i32 (...)**, i64, i64, i32, i32, i32, %"struct.std::ios_base::_Callback_list"*, %"struct.std::ios_base::_Words", [8 x %"struct.std::ios_base::_Words"], i32, %"struct.std::ios_base::_Words"*, %"class.std::locale" }
%"struct.std::ios_base::_Callback_list" = type { %"struct.std::ios_base::_Callback_list"*, void (i32, %"class.std::ios_base"*, i32)*, i32, i32 }
%"struct.std::ios_base::_Words" = type { i8*, i64 }
%"class.std::locale" = type { %"class.std::locale::_Impl"* }
%"class.std::locale::_Impl" = type { i32, %"class.std::locale::facet"**, i64, %"class.std::locale::facet"**, i8** }
%"class.std::locale::facet" = type <{ i32 (...)**, i32, [4 x i8] }>
%"class.std::basic_ostream" = type { i32 (...)**, %"class.std::basic_ios" }
%"class.std::basic_streambuf" = type { i32 (...)**, i8*, i8*, i8*, i8*, i8*, i8*, %"class.std::locale" }
%"class.std::ctype" = type <{ %"class.std::locale::facet.base", [4 x i8], %struct.__locale_struct*, i8, [7 x i8], i32*, i32*, i16*, i8, [256 x i8], [256 x i8], i8, [6 x i8] }>
%"class.std::locale::facet.base" = type <{ i32 (...)**, i32 }>
%struct.__locale_struct = type { [13 x %struct.__locale_data*], i16*, i32*, i32*, [13 x i8*] }
%struct.__locale_data = type opaque
%"class.std::num_put" = type { %"class.std::locale::facet.base", [4 x i8] }
%"class.std::num_get" = type { %"class.std::locale::facet.base", [4 x i8] }

@_ZStL8__ioinit = internal global %"class.std::ios_base::Init" zeroinitializer, align 1
@__dso_handle = external hidden global i8
@_ZSt3cin = external global %"class.std::basic_istream", align 8
@_ZSt4cout = external global %"class.std::basic_ostream", align 8
@llvm.global_ctors = appending global [1 x { i32, void ()*, i8* }] [{ i32, void ()*, i8* } { i32 65535, void ()* @_GLOBAL__sub_I_1059.cpp, i8* null }]

declare void @_ZNSt8ios_base4InitC1Ev(%"class.std::ios_base::Init"* nonnull align 1 dereferenceable(1)) unnamed_addr #0

; Function Attrs: nounwind
declare void @_ZNSt8ios_base4InitD1Ev(%"class.std::ios_base::Init"* nonnull align 1 dereferenceable(1)) unnamed_addr #1

; Function Attrs: nofree nounwind
declare i32 @__cxa_atexit(void (i8*)*, i8*, i8*) local_unnamed_addr #2

; Function Attrs: mustprogress norecurse sspstrong uwtable
define dso_local i32 @main() local_unnamed_addr #3 {
  %1 = alloca [13 x i32], align 16
  %2 = alloca i32, align 4
  %3 = alloca i32, align 4
  %4 = alloca i32, align 4
  %5 = bitcast [13 x i32]* %1 to i8*
  call void @llvm.lifetime.start.p0i8(i64 52, i8* nonnull %5) #8
  %6 = bitcast i32* %2 to i8*
  call void @llvm.lifetime.start.p0i8(i64 4, i8* nonnull %6) #8
  %7 = bitcast i32* %3 to i8*
  call void @llvm.lifetime.start.p0i8(i64 4, i8* nonnull %7) #8
  %8 = bitcast i32* %4 to i8*
  call void @llvm.lifetime.start.p0i8(i64 4, i8* nonnull %8) #8
  %9 = call nonnull align 8 dereferenceable(16) %"class.std::basic_istream"* @_ZNSirsERi(%"class.std::basic_istream"* nonnull align 8 dereferenceable(16) @_ZSt3cin, i32* nonnull align 4 dereferenceable(4) %4)
  %10 = call nonnull align 8 dereferenceable(16) %"class.std::basic_istream"* @_ZNSirsERi(%"class.std::basic_istream"* nonnull align 8 dereferenceable(16) %9, i32* nonnull align 4 dereferenceable(4) %2)
  %11 = call nonnull align 8 dereferenceable(16) %"class.std::basic_istream"* @_ZNSirsERi(%"class.std::basic_istream"* nonnull align 8 dereferenceable(16) %10, i32* nonnull align 4 dereferenceable(4) %3)
  %12 = load i32, i32* %4, align 4, !tbaa !5
  %13 = srem i32 %12, 100
  %14 = icmp eq i32 %13, 0
  br i1 %14, label %21, label %15

15:                                               ; preds = %0
  %16 = and i32 %12, 3
  %17 = icmp eq i32 %16, 0
  %18 = getelementptr inbounds [13 x i32], [13 x i32]* %1, i64 0, i64 2
  br i1 %17, label %19, label %20

19:                                               ; preds = %15
  store i32 29, i32* %18, align 8, !tbaa !5
  br label %27

20:                                               ; preds = %15
  store i32 28, i32* %18, align 8, !tbaa !5
  br label %27

21:                                               ; preds = %0
  %22 = srem i32 %12, 400
  %23 = icmp eq i32 %22, 0
  %24 = getelementptr inbounds [13 x i32], [13 x i32]* %1, i64 0, i64 2
  br i1 %23, label %25, label %26

25:                                               ; preds = %21
  store i32 29, i32* %24, align 8, !tbaa !5
  br label %27

26:                                               ; preds = %21
  store i32 28, i32* %24, align 8, !tbaa !5
  br label %27

27:                                               ; preds = %25, %26, %19, %20
  %28 = getelementptr inbounds [13 x i32], [13 x i32]* %1, i64 0, i64 11
  %29 = getelementptr inbounds [13 x i32], [13 x i32]* %1, i64 0, i64 7
  %30 = getelementptr inbounds [13 x i32], [13 x i32]* %1, i64 0, i64 3
  %31 = getelementptr inbounds [13 x i32], [13 x i32]* %1, i64 0, i64 1
  store i32 31, i32* %31, align 4, !tbaa !5
  store i32 30, i32* %28, align 4, !tbaa !5
  %32 = bitcast i32* %29 to <4 x i32>*
  store <4 x i32> <i32 31, i32 31, i32 30, i32 31>, <4 x i32>* %32, align 4, !tbaa !5
  %33 = bitcast i32* %30 to <4 x i32>*
  store <4 x i32> <i32 31, i32 30, i32 31, i32 30>, <4 x i32>* %33, align 4, !tbaa !5
  %34 = load i32, i32* %3, align 4, !tbaa !5
  %35 = load i32, i32* %2, align 4, !tbaa !5
  %36 = icmp sgt i32 %35, 1
  br i1 %36, label %37, label %132

37:                                               ; preds = %27
  %38 = zext i32 %35 to i64
  %39 = add nsw i32 %34, 31
  %40 = icmp eq i32 %35, 2
  br i1 %40, label %132, label %41, !llvm.loop !9

41:                                               ; preds = %37
  %42 = add nsw i64 %38, -2
  %43 = icmp ult i64 %42, 8
  br i1 %43, label %129, label %44

44:                                               ; preds = %41
  %45 = and i64 %42, -8
  %46 = or i64 %45, 2
  %47 = insertelement <4 x i32> <i32 poison, i32 0, i32 0, i32 0>, i32 %39, i32 0
  %48 = add nsw i64 %45, -8
  %49 = lshr exact i64 %48, 3
  %50 = add nuw nsw i64 %49, 1
  %51 = and i64 %50, 3
  %52 = icmp ult i64 %48, 24
  br i1 %52, label %99, label %53

53:                                               ; preds = %44
  %54 = and i64 %50, 4611686018427387900
  br label %55

55:                                               ; preds = %55, %53
  %56 = phi i64 [ 0, %53 ], [ %96, %55 ]
  %57 = phi <4 x i32> [ %47, %53 ], [ %94, %55 ]
  %58 = phi <4 x i32> [ zeroinitializer, %53 ], [ %95, %55 ]
  %59 = phi i64 [ %54, %53 ], [ %97, %55 ]
  %60 = or i64 %56, 2
  %61 = getelementptr inbounds [13 x i32], [13 x i32]* %1, i64 0, i64 %60
  %62 = bitcast i32* %61 to <4 x i32>*
  %63 = load <4 x i32>, <4 x i32>* %62, align 8, !tbaa !5
  %64 = getelementptr inbounds i32, i32* %61, i64 4
  %65 = bitcast i32* %64 to <4 x i32>*
  %66 = load <4 x i32>, <4 x i32>* %65, align 8, !tbaa !5
  %67 = add <4 x i32> %63, %57
  %68 = add <4 x i32> %66, %58
  %69 = or i64 %56, 10
  %70 = getelementptr inbounds [13 x i32], [13 x i32]* %1, i64 0, i64 %69
  %71 = bitcast i32* %70 to <4 x i32>*
  %72 = load <4 x i32>, <4 x i32>* %71, align 8, !tbaa !5
  %73 = getelementptr inbounds i32, i32* %70, i64 4
  %74 = bitcast i32* %73 to <4 x i32>*
  %75 = load <4 x i32>, <4 x i32>* %74, align 8, !tbaa !5
  %76 = add <4 x i32> %72, %67
  %77 = add <4 x i32> %75, %68
  %78 = or i64 %56, 18
  %79 = getelementptr inbounds [13 x i32], [13 x i32]* %1, i64 0, i64 %78
  %80 = bitcast i32* %79 to <4 x i32>*
  %81 = load <4 x i32>, <4 x i32>* %80, align 8, !tbaa !5
  %82 = getelementptr inbounds i32, i32* %79, i64 4
  %83 = bitcast i32* %82 to <4 x i32>*
  %84 = load <4 x i32>, <4 x i32>* %83, align 8, !tbaa !5
  %85 = add <4 x i32> %81, %76
  %86 = add <4 x i32> %84, %77
  %87 = or i64 %56, 26
  %88 = getelementptr inbounds [13 x i32], [13 x i32]* %1, i64 0, i64 %87
  %89 = bitcast i32* %88 to <4 x i32>*
  %90 = load <4 x i32>, <4 x i32>* %89, align 8, !tbaa !5
  %91 = getelementptr inbounds i32, i32* %88, i64 4
  %92 = bitcast i32* %91 to <4 x i32>*
  %93 = load <4 x i32>, <4 x i32>* %92, align 8, !tbaa !5
  %94 = add <4 x i32> %90, %85
  %95 = add <4 x i32> %93, %86
  %96 = add nuw i64 %56, 32
  %97 = add i64 %59, -4
  %98 = icmp eq i64 %97, 0
  br i1 %98, label %99, label %55, !llvm.loop !11

99:                                               ; preds = %55, %44
  %100 = phi <4 x i32> [ undef, %44 ], [ %94, %55 ]
  %101 = phi <4 x i32> [ undef, %44 ], [ %95, %55 ]
  %102 = phi i64 [ 0, %44 ], [ %96, %55 ]
  %103 = phi <4 x i32> [ %47, %44 ], [ %94, %55 ]
  %104 = phi <4 x i32> [ zeroinitializer, %44 ], [ %95, %55 ]
  %105 = icmp eq i64 %51, 0
  br i1 %105, label %123, label %106

106:                                              ; preds = %99, %106
  %107 = phi i64 [ %120, %106 ], [ %102, %99 ]
  %108 = phi <4 x i32> [ %118, %106 ], [ %103, %99 ]
  %109 = phi <4 x i32> [ %119, %106 ], [ %104, %99 ]
  %110 = phi i64 [ %121, %106 ], [ %51, %99 ]
  %111 = or i64 %107, 2
  %112 = getelementptr inbounds [13 x i32], [13 x i32]* %1, i64 0, i64 %111
  %113 = bitcast i32* %112 to <4 x i32>*
  %114 = load <4 x i32>, <4 x i32>* %113, align 8, !tbaa !5
  %115 = getelementptr inbounds i32, i32* %112, i64 4
  %116 = bitcast i32* %115 to <4 x i32>*
  %117 = load <4 x i32>, <4 x i32>* %116, align 8, !tbaa !5
  %118 = add <4 x i32> %114, %108
  %119 = add <4 x i32> %117, %109
  %120 = add nuw i64 %107, 8
  %121 = add i64 %110, -1
  %122 = icmp eq i64 %121, 0
  br i1 %122, label %123, label %106, !llvm.loop !13

123:                                              ; preds = %106, %99
  %124 = phi <4 x i32> [ %100, %99 ], [ %118, %106 ]
  %125 = phi <4 x i32> [ %101, %99 ], [ %119, %106 ]
  %126 = add <4 x i32> %125, %124
  %127 = call i32 @llvm.vector.reduce.add.v4i32(<4 x i32> %126)
  %128 = icmp eq i64 %42, %45
  br i1 %128, label %132, label %129

129:                                              ; preds = %41, %123
  %130 = phi i64 [ 2, %41 ], [ %46, %123 ]
  %131 = phi i32 [ %39, %41 ], [ %127, %123 ]
  br label %164

132:                                              ; preds = %164, %37, %123, %27
  %133 = phi i32 [ %34, %27 ], [ %39, %37 ], [ %127, %123 ], [ %169, %164 ]
  %134 = call nonnull align 8 dereferenceable(8) %"class.std::basic_ostream"* @_ZNSolsEi(%"class.std::basic_ostream"* nonnull align 8 dereferenceable(8) @_ZSt4cout, i32 %133)
  %135 = bitcast %"class.std::basic_ostream"* %134 to i8**
  %136 = load i8*, i8** %135, align 8, !tbaa !15
  %137 = getelementptr i8, i8* %136, i64 -24
  %138 = bitcast i8* %137 to i64*
  %139 = load i64, i64* %138, align 8
  %140 = bitcast %"class.std::basic_ostream"* %134 to i8*
  %141 = add nsw i64 %139, 240
  %142 = getelementptr inbounds i8, i8* %140, i64 %141
  %143 = bitcast i8* %142 to %"class.std::ctype"**
  %144 = load %"class.std::ctype"*, %"class.std::ctype"** %143, align 8, !tbaa !17
  %145 = icmp eq %"class.std::ctype"* %144, null
  br i1 %145, label %146, label %147

146:                                              ; preds = %132
  call void @_ZSt16__throw_bad_castv() #9
  unreachable

147:                                              ; preds = %132
  %148 = getelementptr inbounds %"class.std::ctype", %"class.std::ctype"* %144, i64 0, i32 8
  %149 = load i8, i8* %148, align 8, !tbaa !21
  %150 = icmp eq i8 %149, 0
  br i1 %150, label %154, label %151

151:                                              ; preds = %147
  %152 = getelementptr inbounds %"class.std::ctype", %"class.std::ctype"* %144, i64 0, i32 9, i64 10
  %153 = load i8, i8* %152, align 1, !tbaa !23
  br label %160

154:                                              ; preds = %147
  call void @_ZNKSt5ctypeIcE13_M_widen_initEv(%"class.std::ctype"* nonnull align 8 dereferenceable(570) %144)
  %155 = bitcast %"class.std::ctype"* %144 to i8 (%"class.std::ctype"*, i8)***
  %156 = load i8 (%"class.std::ctype"*, i8)**, i8 (%"class.std::ctype"*, i8)*** %155, align 8, !tbaa !15
  %157 = getelementptr inbounds i8 (%"class.std::ctype"*, i8)*, i8 (%"class.std::ctype"*, i8)** %156, i64 6
  %158 = load i8 (%"class.std::ctype"*, i8)*, i8 (%"class.std::ctype"*, i8)** %157, align 8
  %159 = call signext i8 %158(%"class.std::ctype"* nonnull align 8 dereferenceable(570) %144, i8 signext 10)
  br label %160

160:                                              ; preds = %151, %154
  %161 = phi i8 [ %153, %151 ], [ %159, %154 ]
  %162 = call nonnull align 8 dereferenceable(8) %"class.std::basic_ostream"* @_ZNSo3putEc(%"class.std::basic_ostream"* nonnull align 8 dereferenceable(8) %134, i8 signext %161)
  %163 = call nonnull align 8 dereferenceable(8) %"class.std::basic_ostream"* @_ZNSo5flushEv(%"class.std::basic_ostream"* nonnull align 8 dereferenceable(8) %162)
  call void @llvm.lifetime.end.p0i8(i64 4, i8* nonnull %8) #8
  call void @llvm.lifetime.end.p0i8(i64 4, i8* nonnull %7) #8
  call void @llvm.lifetime.end.p0i8(i64 4, i8* nonnull %6) #8
  call void @llvm.lifetime.end.p0i8(i64 52, i8* nonnull %5) #8
  ret i32 0

164:                                              ; preds = %129, %164
  %165 = phi i64 [ %170, %164 ], [ %130, %129 ]
  %166 = phi i32 [ %169, %164 ], [ %131, %129 ]
  %167 = getelementptr inbounds [13 x i32], [13 x i32]* %1, i64 0, i64 %165
  %168 = load i32, i32* %167, align 4, !tbaa !5
  %169 = add nsw i32 %168, %166
  %170 = add nuw nsw i64 %165, 1
  %171 = icmp eq i64 %170, %38
  br i1 %171, label %132, label %164, !llvm.loop !24
}

; Function Attrs: argmemonly mustprogress nofree nosync nounwind willreturn
declare void @llvm.lifetime.start.p0i8(i64 immarg, i8* nocapture) #4

declare nonnull align 8 dereferenceable(16) %"class.std::basic_istream"* @_ZNSirsERi(%"class.std::basic_istream"* nonnull align 8 dereferenceable(16), i32* nonnull align 4 dereferenceable(4)) local_unnamed_addr #0

; Function Attrs: argmemonly mustprogress nofree nosync nounwind willreturn
declare void @llvm.lifetime.end.p0i8(i64 immarg, i8* nocapture) #4

declare nonnull align 8 dereferenceable(8) %"class.std::basic_ostream"* @_ZNSolsEi(%"class.std::basic_ostream"* nonnull align 8 dereferenceable(8), i32) local_unnamed_addr #0

declare nonnull align 8 dereferenceable(8) %"class.std::basic_ostream"* @_ZNSo3putEc(%"class.std::basic_ostream"* nonnull align 8 dereferenceable(8), i8 signext) local_unnamed_addr #0

declare nonnull align 8 dereferenceable(8) %"class.std::basic_ostream"* @_ZNSo5flushEv(%"class.std::basic_ostream"* nonnull align 8 dereferenceable(8)) local_unnamed_addr #0

; Function Attrs: noreturn
declare void @_ZSt16__throw_bad_castv() local_unnamed_addr #5

declare void @_ZNKSt5ctypeIcE13_M_widen_initEv(%"class.std::ctype"* nonnull align 8 dereferenceable(570)) local_unnamed_addr #0

; Function Attrs: sspstrong uwtable
define internal void @_GLOBAL__sub_I_1059.cpp() #6 section ".text.startup" {
  tail call void @_ZNSt8ios_base4InitC1Ev(%"class.std::ios_base::Init"* nonnull align 1 dereferenceable(1) @_ZStL8__ioinit)
  %1 = tail call i32 @__cxa_atexit(void (i8*)* bitcast (void (%"class.std::ios_base::Init"*)* @_ZNSt8ios_base4InitD1Ev to void (i8*)*), i8* getelementptr inbounds (%"class.std::ios_base::Init", %"class.std::ios_base::Init"* @_ZStL8__ioinit, i64 0, i32 0), i8* nonnull @__dso_handle) #8
  ret void
}

; Function Attrs: nofree nosync nounwind readnone willreturn
declare i32 @llvm.vector.reduce.add.v4i32(<4 x i32>) #7


!llvm.module.flags = !{!0, !1, !2, !3}
!llvm.ident = !{!4}

!0 = !{i32 1, !"wchar_size", i32 4}
!1 = !{i32 7, !"PIC Level", i32 2}
!2 = !{i32 7, !"PIE Level", i32 2}
!3 = !{i32 7, !"uwtable", i32 1}
!4 = !{!"clang version 13.0.0"}
!5 = !{!6, !6, i64 0}
!6 = !{!"int", !7, i64 0}
!7 = !{!"omnipotent char", !8, i64 0}
!8 = !{!"Simple C++ TBAA"}
!9 = distinct !{!9, !10}
!10 = !{!"llvm.loop.mustprogress"}
!11 = distinct !{!11, !10, !12}
!12 = !{!"llvm.loop.isvectorized", i32 1}
!13 = distinct !{!13, !14}
!14 = !{!"llvm.loop.unroll.disable"}
!15 = !{!16, !16, i64 0}
!16 = !{!"vtable pointer", !8, i64 0}
!17 = !{!18, !19, i64 240}
!18 = !{!"_ZTSSt9basic_iosIcSt11char_traitsIcEE", !19, i64 216, !7, i64 224, !20, i64 225, !19, i64 232, !19, i64 240, !19, i64 248, !19, i64 256}
!19 = !{!"any pointer", !7, i64 0}
!20 = !{!"bool", !7, i64 0}
!21 = !{!22, !7, i64 56}
!22 = !{!"_ZTSSt5ctypeIcE", !19, i64 16, !20, i64 24, !19, i64 32, !19, i64 40, !19, i64 48, !7, i64 56, !7, i64 57, !7, i64 313, !7, i64 569}
!23 = !{!7, !7, i64 0}
!24 = distinct !{!24, !10, !25, !12}
!25 = !{!"llvm.loop.unroll.runtime.disable"}
